ARM GAS  /tmp/ccNVaBhV.s 			page 1


   1              		.cpu cortex-m4
   2              		.eabi_attribute 27, 1
   3              		.eabi_attribute 28, 1
   4              		.eabi_attribute 20, 1
   5              		.eabi_attribute 21, 1
   6              		.eabi_attribute 23, 3
   7              		.eabi_attribute 24, 1
   8              		.eabi_attribute 25, 1
   9              		.eabi_attribute 26, 1
  10              		.eabi_attribute 30, 2
  11              		.eabi_attribute 34, 1
  12              		.eabi_attribute 18, 4
  13              		.file	"main.c"
  14              		.text
  15              	.Ltext0:
  16              		.cfi_sections	.debug_frame
  17              		.section	.text.move_forward,"ax",%progbits
  18              		.align	1
  19              		.p2align 4,,15
  20              		.global	move_forward
  21              		.syntax unified
  22              		.thumb
  23              		.thumb_func
  24              		.fpu fpv4-sp-d16
  25              		.type	move_forward, %function
  26              	move_forward:
  27              	.LFB259:
  28              		.file 1 "main.c"
  29              		.loc 1 39 0
  30              		.cfi_startproc
  31              		@ args = 0, pretend = 0, frame = 8
  32              		@ frame_needed = 0, uses_anonymous_args = 0
  33 0000 30B5     		push	{r4, r5, lr}
  34              		.cfi_def_cfa_offset 12
  35              		.cfi_offset 4, -12
  36              		.cfi_offset 5, -8
  37              		.cfi_offset 14, -4
  38 0002 0A4C     		ldr	r4, .L7
  39              		.loc 1 40 0
  40 0004 0A4D     		ldr	r5, .L7+4
  41              		.loc 1 39 0
  42 0006 2368     		ldr	r3, [r4]
  43              		.loc 1 40 0
  44 0008 2868     		ldr	r0, [r5]
  45              		.loc 1 39 0
  46 000a 83B0     		sub	sp, sp, #12
  47              		.cfi_def_cfa_offset 24
  48              		.loc 1 39 0
  49 000c 0193     		str	r3, [sp, #4]
  50              		.loc 1 40 0
  51 000e FFF7FEFF 		bl	left_motor_set_speed
  52              	.LVL0:
  53              		.loc 1 41 0
  54 0012 019A     		ldr	r2, [sp, #4]
  55 0014 2368     		ldr	r3, [r4]
  56 0016 9A42     		cmp	r2, r3
  57 0018 05D1     		bne	.L6
ARM GAS  /tmp/ccNVaBhV.s 			page 2


  58 001a 2868     		ldr	r0, [r5]
  59              		.loc 1 42 0
  60 001c 03B0     		add	sp, sp, #12
  61              		.cfi_remember_state
  62              		.cfi_def_cfa_offset 12
  63              		@ sp needed
  64 001e BDE83040 		pop	{r4, r5, lr}
  65              		.cfi_restore 14
  66              		.cfi_restore 5
  67              		.cfi_restore 4
  68              		.cfi_def_cfa_offset 0
  69              		.loc 1 41 0
  70 0022 FFF7FEBF 		b	right_motor_set_speed
  71              	.LVL1:
  72              	.L6:
  73              		.cfi_restore_state
  74 0026 FFF7FEFF 		bl	__stack_chk_fail
  75              	.LVL2:
  76              	.L8:
  77 002a 00BF     		.align	2
  78              	.L7:
  79 002c 00000000 		.word	__stack_chk_guard
  80 0030 00000000 		.word	.LANCHOR0
  81              		.cfi_endproc
  82              	.LFE259:
  83              		.size	move_forward, .-move_forward
  84              		.section	.text.move_back,"ax",%progbits
  85              		.align	1
  86              		.p2align 4,,15
  87              		.global	move_back
  88              		.syntax unified
  89              		.thumb
  90              		.thumb_func
  91              		.fpu fpv4-sp-d16
  92              		.type	move_back, %function
  93              	move_back:
  94              	.LFB260:
  95              		.loc 1 44 0
  96              		.cfi_startproc
  97              		@ args = 0, pretend = 0, frame = 8
  98              		@ frame_needed = 0, uses_anonymous_args = 0
  99 0000 30B5     		push	{r4, r5, lr}
 100              		.cfi_def_cfa_offset 12
 101              		.cfi_offset 4, -12
 102              		.cfi_offset 5, -8
 103              		.cfi_offset 14, -4
 104 0002 0A4C     		ldr	r4, .L14
 105              		.loc 1 45 0
 106 0004 0A4D     		ldr	r5, .L14+4
 107              		.loc 1 44 0
 108 0006 2368     		ldr	r3, [r4]
 109              		.loc 1 45 0
 110 0008 2868     		ldr	r0, [r5]
 111              		.loc 1 44 0
 112 000a 83B0     		sub	sp, sp, #12
 113              		.cfi_def_cfa_offset 24
 114              		.loc 1 44 0
ARM GAS  /tmp/ccNVaBhV.s 			page 3


 115 000c 0193     		str	r3, [sp, #4]
 116              		.loc 1 45 0
 117 000e FFF7FEFF 		bl	left_motor_set_speed
 118              	.LVL3:
 119              		.loc 1 46 0
 120 0012 019A     		ldr	r2, [sp, #4]
 121 0014 2368     		ldr	r3, [r4]
 122 0016 9A42     		cmp	r2, r3
 123 0018 05D1     		bne	.L13
 124 001a 2868     		ldr	r0, [r5]
 125              		.loc 1 47 0
 126 001c 03B0     		add	sp, sp, #12
 127              		.cfi_remember_state
 128              		.cfi_def_cfa_offset 12
 129              		@ sp needed
 130 001e BDE83040 		pop	{r4, r5, lr}
 131              		.cfi_restore 14
 132              		.cfi_restore 5
 133              		.cfi_restore 4
 134              		.cfi_def_cfa_offset 0
 135              		.loc 1 46 0
 136 0022 FFF7FEBF 		b	right_motor_set_speed
 137              	.LVL4:
 138              	.L13:
 139              		.cfi_restore_state
 140 0026 FFF7FEFF 		bl	__stack_chk_fail
 141              	.LVL5:
 142              	.L15:
 143 002a 00BF     		.align	2
 144              	.L14:
 145 002c 00000000 		.word	__stack_chk_guard
 146 0030 00000000 		.word	.LANCHOR1
 147              		.cfi_endproc
 148              	.LFE260:
 149              		.size	move_back, .-move_back
 150              		.section	.text.stop,"ax",%progbits
 151              		.align	1
 152              		.p2align 4,,15
 153              		.global	stop
 154              		.syntax unified
 155              		.thumb
 156              		.thumb_func
 157              		.fpu fpv4-sp-d16
 158              		.type	stop, %function
 159              	stop:
 160              	.LFB261:
 161              		.loc 1 49 0
 162              		.cfi_startproc
 163              		@ args = 0, pretend = 0, frame = 8
 164              		@ frame_needed = 0, uses_anonymous_args = 0
 165 0000 10B5     		push	{r4, lr}
 166              		.cfi_def_cfa_offset 8
 167              		.cfi_offset 4, -8
 168              		.cfi_offset 14, -4
 169 0002 094C     		ldr	r4, .L21
 170 0004 82B0     		sub	sp, sp, #8
 171              		.cfi_def_cfa_offset 16
ARM GAS  /tmp/ccNVaBhV.s 			page 4


 172              		.loc 1 49 0
 173 0006 2368     		ldr	r3, [r4]
 174 0008 0193     		str	r3, [sp, #4]
 175              		.loc 1 50 0
 176 000a 0020     		movs	r0, #0
 177 000c FFF7FEFF 		bl	left_motor_set_speed
 178              	.LVL6:
 179              		.loc 1 51 0
 180 0010 019A     		ldr	r2, [sp, #4]
 181 0012 2368     		ldr	r3, [r4]
 182 0014 9A42     		cmp	r2, r3
 183 0016 05D1     		bne	.L20
 184 0018 0020     		movs	r0, #0
 185              		.loc 1 52 0
 186 001a 02B0     		add	sp, sp, #8
 187              		.cfi_remember_state
 188              		.cfi_def_cfa_offset 8
 189              		@ sp needed
 190 001c BDE81040 		pop	{r4, lr}
 191              		.cfi_restore 14
 192              		.cfi_restore 4
 193              		.cfi_def_cfa_offset 0
 194              		.loc 1 51 0
 195 0020 FFF7FEBF 		b	right_motor_set_speed
 196              	.LVL7:
 197              	.L20:
 198              		.cfi_restore_state
 199 0024 FFF7FEFF 		bl	__stack_chk_fail
 200              	.LVL8:
 201              	.L22:
 202              		.align	2
 203              	.L21:
 204 0028 00000000 		.word	__stack_chk_guard
 205              		.cfi_endproc
 206              	.LFE261:
 207              		.size	stop, .-stop
 208              		.section	.text.turn_left,"ax",%progbits
 209              		.align	1
 210              		.p2align 4,,15
 211              		.global	turn_left
 212              		.syntax unified
 213              		.thumb
 214              		.thumb_func
 215              		.fpu fpv4-sp-d16
 216              		.type	turn_left, %function
 217              	turn_left:
 218              	.LFB262:
 219              		.loc 1 54 0
 220              		.cfi_startproc
 221              		@ args = 0, pretend = 0, frame = 8
 222              		@ frame_needed = 0, uses_anonymous_args = 0
 223 0000 10B5     		push	{r4, lr}
 224              		.cfi_def_cfa_offset 8
 225              		.cfi_offset 4, -8
 226              		.cfi_offset 14, -4
 227              		.loc 1 55 0
 228 0002 0A4A     		ldr	r2, .L28
ARM GAS  /tmp/ccNVaBhV.s 			page 5


 229              		.loc 1 54 0
 230 0004 0A4C     		ldr	r4, .L28+4
 231              		.loc 1 55 0
 232 0006 1068     		ldr	r0, [r2]
 233              		.loc 1 54 0
 234 0008 2368     		ldr	r3, [r4]
 235 000a 82B0     		sub	sp, sp, #8
 236              		.cfi_def_cfa_offset 16
 237              		.loc 1 54 0
 238 000c 0193     		str	r3, [sp, #4]
 239              		.loc 1 55 0
 240 000e FFF7FEFF 		bl	left_motor_set_speed
 241              	.LVL9:
 242              		.loc 1 56 0
 243 0012 019A     		ldr	r2, [sp, #4]
 244 0014 2368     		ldr	r3, [r4]
 245 0016 9A42     		cmp	r2, r3
 246 0018 06D1     		bne	.L27
 247 001a 064B     		ldr	r3, .L28+8
 248 001c 1868     		ldr	r0, [r3]
 249              		.loc 1 57 0
 250 001e 02B0     		add	sp, sp, #8
 251              		.cfi_remember_state
 252              		.cfi_def_cfa_offset 8
 253              		@ sp needed
 254 0020 BDE81040 		pop	{r4, lr}
 255              		.cfi_restore 14
 256              		.cfi_restore 4
 257              		.cfi_def_cfa_offset 0
 258              		.loc 1 56 0
 259 0024 FFF7FEBF 		b	right_motor_set_speed
 260              	.LVL10:
 261              	.L27:
 262              		.cfi_restore_state
 263 0028 FFF7FEFF 		bl	__stack_chk_fail
 264              	.LVL11:
 265              	.L29:
 266              		.align	2
 267              	.L28:
 268 002c 00000000 		.word	.LANCHOR1
 269 0030 00000000 		.word	__stack_chk_guard
 270 0034 00000000 		.word	.LANCHOR0
 271              		.cfi_endproc
 272              	.LFE262:
 273              		.size	turn_left, .-turn_left
 274              		.section	.text.move_left,"ax",%progbits
 275              		.align	1
 276              		.p2align 4,,15
 277              		.global	move_left
 278              		.syntax unified
 279              		.thumb
 280              		.thumb_func
 281              		.fpu fpv4-sp-d16
 282              		.type	move_left, %function
 283              	move_left:
 284              	.LFB263:
 285              		.loc 1 59 0
ARM GAS  /tmp/ccNVaBhV.s 			page 6


 286              		.cfi_startproc
 287              		@ args = 0, pretend = 0, frame = 8
 288              		@ frame_needed = 0, uses_anonymous_args = 0
 289 0000 10B5     		push	{r4, lr}
 290              		.cfi_def_cfa_offset 8
 291              		.cfi_offset 4, -8
 292              		.cfi_offset 14, -4
 293              		.loc 1 60 0
 294 0002 0C4B     		ldr	r3, .L35
 295              		.loc 1 59 0
 296 0004 0C4C     		ldr	r4, .L35+4
 297              		.loc 1 60 0
 298 0006 1868     		ldr	r0, [r3]
 299              		.loc 1 59 0
 300 0008 2368     		ldr	r3, [r4]
 301 000a 82B0     		sub	sp, sp, #8
 302              		.cfi_def_cfa_offset 16
 303              		.loc 1 60 0
 304 000c 00EBD070 		add	r0, r0, r0, lsr #31
 305 0010 4010     		asrs	r0, r0, #1
 306              		.loc 1 59 0
 307 0012 0193     		str	r3, [sp, #4]
 308              		.loc 1 60 0
 309 0014 FFF7FEFF 		bl	left_motor_set_speed
 310              	.LVL12:
 311              		.loc 1 61 0
 312 0018 019A     		ldr	r2, [sp, #4]
 313 001a 2368     		ldr	r3, [r4]
 314 001c 9A42     		cmp	r2, r3
 315 001e 06D1     		bne	.L34
 316 0020 064B     		ldr	r3, .L35+8
 317 0022 1868     		ldr	r0, [r3]
 318              		.loc 1 62 0
 319 0024 02B0     		add	sp, sp, #8
 320              		.cfi_remember_state
 321              		.cfi_def_cfa_offset 8
 322              		@ sp needed
 323 0026 BDE81040 		pop	{r4, lr}
 324              		.cfi_restore 14
 325              		.cfi_restore 4
 326              		.cfi_def_cfa_offset 0
 327              		.loc 1 61 0
 328 002a FFF7FEBF 		b	right_motor_set_speed
 329              	.LVL13:
 330              	.L34:
 331              		.cfi_restore_state
 332 002e FFF7FEFF 		bl	__stack_chk_fail
 333              	.LVL14:
 334              	.L36:
 335 0032 00BF     		.align	2
 336              	.L35:
 337 0034 00000000 		.word	.LANCHOR1
 338 0038 00000000 		.word	__stack_chk_guard
 339 003c 00000000 		.word	.LANCHOR0
 340              		.cfi_endproc
 341              	.LFE263:
 342              		.size	move_left, .-move_left
ARM GAS  /tmp/ccNVaBhV.s 			page 7


 343              		.section	.text.turn_right,"ax",%progbits
 344              		.align	1
 345              		.p2align 4,,15
 346              		.global	turn_right
 347              		.syntax unified
 348              		.thumb
 349              		.thumb_func
 350              		.fpu fpv4-sp-d16
 351              		.type	turn_right, %function
 352              	turn_right:
 353              	.LFB264:
 354              		.loc 1 64 0
 355              		.cfi_startproc
 356              		@ args = 0, pretend = 0, frame = 8
 357              		@ frame_needed = 0, uses_anonymous_args = 0
 358 0000 10B5     		push	{r4, lr}
 359              		.cfi_def_cfa_offset 8
 360              		.cfi_offset 4, -8
 361              		.cfi_offset 14, -4
 362              		.loc 1 65 0
 363 0002 0A4A     		ldr	r2, .L42
 364              		.loc 1 64 0
 365 0004 0A4C     		ldr	r4, .L42+4
 366              		.loc 1 65 0
 367 0006 1068     		ldr	r0, [r2]
 368              		.loc 1 64 0
 369 0008 2368     		ldr	r3, [r4]
 370 000a 82B0     		sub	sp, sp, #8
 371              		.cfi_def_cfa_offset 16
 372              		.loc 1 64 0
 373 000c 0193     		str	r3, [sp, #4]
 374              		.loc 1 65 0
 375 000e FFF7FEFF 		bl	left_motor_set_speed
 376              	.LVL15:
 377              		.loc 1 66 0
 378 0012 019A     		ldr	r2, [sp, #4]
 379 0014 2368     		ldr	r3, [r4]
 380 0016 9A42     		cmp	r2, r3
 381 0018 06D1     		bne	.L41
 382 001a 064B     		ldr	r3, .L42+8
 383 001c 1868     		ldr	r0, [r3]
 384              		.loc 1 67 0
 385 001e 02B0     		add	sp, sp, #8
 386              		.cfi_remember_state
 387              		.cfi_def_cfa_offset 8
 388              		@ sp needed
 389 0020 BDE81040 		pop	{r4, lr}
 390              		.cfi_restore 14
 391              		.cfi_restore 4
 392              		.cfi_def_cfa_offset 0
 393              		.loc 1 66 0
 394 0024 FFF7FEBF 		b	right_motor_set_speed
 395              	.LVL16:
 396              	.L41:
 397              		.cfi_restore_state
 398 0028 FFF7FEFF 		bl	__stack_chk_fail
 399              	.LVL17:
ARM GAS  /tmp/ccNVaBhV.s 			page 8


 400              	.L43:
 401              		.align	2
 402              	.L42:
 403 002c 00000000 		.word	.LANCHOR0
 404 0030 00000000 		.word	__stack_chk_guard
 405 0034 00000000 		.word	.LANCHOR1
 406              		.cfi_endproc
 407              	.LFE264:
 408              		.size	turn_right, .-turn_right
 409              		.section	.text.move_right,"ax",%progbits
 410              		.align	1
 411              		.p2align 4,,15
 412              		.global	move_right
 413              		.syntax unified
 414              		.thumb
 415              		.thumb_func
 416              		.fpu fpv4-sp-d16
 417              		.type	move_right, %function
 418              	move_right:
 419              	.LFB265:
 420              		.loc 1 69 0
 421              		.cfi_startproc
 422              		@ args = 0, pretend = 0, frame = 8
 423              		@ frame_needed = 0, uses_anonymous_args = 0
 424 0000 10B5     		push	{r4, lr}
 425              		.cfi_def_cfa_offset 8
 426              		.cfi_offset 4, -8
 427              		.cfi_offset 14, -4
 428              		.loc 1 70 0
 429 0002 0C4A     		ldr	r2, .L49
 430              		.loc 1 69 0
 431 0004 0C4C     		ldr	r4, .L49+4
 432              		.loc 1 70 0
 433 0006 1068     		ldr	r0, [r2]
 434              		.loc 1 69 0
 435 0008 2368     		ldr	r3, [r4]
 436 000a 82B0     		sub	sp, sp, #8
 437              		.cfi_def_cfa_offset 16
 438              		.loc 1 69 0
 439 000c 0193     		str	r3, [sp, #4]
 440              		.loc 1 70 0
 441 000e FFF7FEFF 		bl	left_motor_set_speed
 442              	.LVL18:
 443              		.loc 1 71 0
 444 0012 019A     		ldr	r2, [sp, #4]
 445 0014 2368     		ldr	r3, [r4]
 446 0016 9A42     		cmp	r2, r3
 447 0018 09D1     		bne	.L48
 448 001a 084B     		ldr	r3, .L49+8
 449 001c 1868     		ldr	r0, [r3]
 450 001e 00EBD070 		add	r0, r0, r0, lsr #31
 451 0022 4010     		asrs	r0, r0, #1
 452              		.loc 1 72 0
 453 0024 02B0     		add	sp, sp, #8
 454              		.cfi_remember_state
 455              		.cfi_def_cfa_offset 8
 456              		@ sp needed
ARM GAS  /tmp/ccNVaBhV.s 			page 9


 457 0026 BDE81040 		pop	{r4, lr}
 458              		.cfi_restore 14
 459              		.cfi_restore 4
 460              		.cfi_def_cfa_offset 0
 461              		.loc 1 71 0
 462 002a FFF7FEBF 		b	right_motor_set_speed
 463              	.LVL19:
 464              	.L48:
 465              		.cfi_restore_state
 466 002e FFF7FEFF 		bl	__stack_chk_fail
 467              	.LVL20:
 468              	.L50:
 469 0032 00BF     		.align	2
 470              	.L49:
 471 0034 00000000 		.word	.LANCHOR0
 472 0038 00000000 		.word	__stack_chk_guard
 473 003c 00000000 		.word	.LANCHOR1
 474              		.cfi_endproc
 475              	.LFE265:
 476              		.size	move_right, .-move_right
 477              		.section	.text.ran_number,"ax",%progbits
 478              		.align	1
 479              		.p2align 4,,15
 480              		.global	ran_number
 481              		.syntax unified
 482              		.thumb
 483              		.thumb_func
 484              		.fpu fpv4-sp-d16
 485              		.type	ran_number, %function
 486              	ran_number:
 487              	.LFB266:
 488              		.loc 1 75 0
 489              		.cfi_startproc
 490              		@ args = 0, pretend = 0, frame = 8
 491              		@ frame_needed = 0, uses_anonymous_args = 0
 492 0000 70B5     		push	{r4, r5, r6, lr}
 493              		.cfi_def_cfa_offset 16
 494              		.cfi_offset 4, -16
 495              		.cfi_offset 5, -12
 496              		.cfi_offset 6, -8
 497              		.cfi_offset 14, -4
 498 0002 0D4C     		ldr	r4, .L55
 499              		.loc 1 77 0
 500 0004 0D4E     		ldr	r6, .L55+4
 501              		.loc 1 75 0
 502 0006 2368     		ldr	r3, [r4]
 503 0008 82B0     		sub	sp, sp, #8
 504              		.cfi_def_cfa_offset 24
 505              		.loc 1 75 0
 506 000a 0193     		str	r3, [sp, #4]
 507              	.LVL21:
 508              		.loc 1 77 0
 509 000c FFF7FEFF 		bl	rand
 510              	.LVL22:
 511 0010 0B4A     		ldr	r2, .L55+8
 512              		.loc 1 78 0
 513 0012 019D     		ldr	r5, [sp, #4]
ARM GAS  /tmp/ccNVaBhV.s 			page 10


 514 0014 2168     		ldr	r1, [r4]
 515              		.loc 1 77 0
 516 0016 82FB0032 		smull	r3, r2, r2, r0
 517 001a C317     		asrs	r3, r0, #31
 518 001c C3EBA213 		rsb	r3, r3, r2, asr #6
 519 0020 40F29112 		movw	r2, #401
 520 0024 02FB1300 		mls	r0, r2, r3, r0
 521 0028 6430     		adds	r0, r0, #100
 522              		.loc 1 78 0
 523 002a 8D42     		cmp	r5, r1
 524              		.loc 1 77 0
 525 002c 3060     		str	r0, [r6]
 526              		.loc 1 78 0
 527 002e 01D1     		bne	.L54
 528 0030 02B0     		add	sp, sp, #8
 529              		.cfi_remember_state
 530              		.cfi_def_cfa_offset 16
 531              		@ sp needed
 532 0032 70BD     		pop	{r4, r5, r6, pc}
 533              	.L54:
 534              		.cfi_restore_state
 535 0034 FFF7FEFF 		bl	__stack_chk_fail
 536              	.LVL23:
 537              	.L56:
 538              		.align	2
 539              	.L55:
 540 0038 00000000 		.word	__stack_chk_guard
 541 003c 00000000 		.word	.LANCHOR2
 542 0040 699CDB28 		.word	685481065
 543              		.cfi_endproc
 544              	.LFE266:
 545              		.size	ran_number, .-ran_number
 546              		.section	.text.readBB,"ax",%progbits
 547              		.align	1
 548              		.p2align 4,,15
 549              		.global	readBB
 550              		.syntax unified
 551              		.thumb
 552              		.thumb_func
 553              		.fpu fpv4-sp-d16
 554              		.type	readBB, %function
 555              	readBB:
 556              	.LFB267:
 557              		.loc 1 80 0
 558              		.cfi_startproc
 559              		@ args = 0, pretend = 0, frame = 8
 560              		@ frame_needed = 0, uses_anonymous_args = 0
 561              	.LVL24:
 562 0000 2DE9F04F 		push	{r4, r5, r6, r7, r8, r9, r10, fp, lr}
 563              		.cfi_def_cfa_offset 36
 564              		.cfi_offset 4, -36
 565              		.cfi_offset 5, -32
 566              		.cfi_offset 6, -28
 567              		.cfi_offset 7, -24
 568              		.cfi_offset 8, -20
 569              		.cfi_offset 9, -16
 570              		.cfi_offset 10, -12
ARM GAS  /tmp/ccNVaBhV.s 			page 11


 571              		.cfi_offset 11, -8
 572              		.cfi_offset 14, -4
 573 0004 204B     		ldr	r3, .L65
 574 0006 214C     		ldr	r4, .L65+4
 575 0008 1B68     		ldr	r3, [r3]
 576 000a DFF88490 		ldr	r9, .L65+8
 577 000e DFF884A0 		ldr	r10, .L65+12
 578 0012 DFF884B0 		ldr	fp, .L65+16
 579 0016 83B0     		sub	sp, sp, #12
 580              		.cfi_def_cfa_offset 48
 581 0018 A0F10408 		sub	r8, r0, #4
 582              		.loc 1 80 0
 583 001c 0193     		str	r3, [sp, #4]
 584              	.LVL25:
 585              	.LBB11:
 586              		.loc 1 81 0
 587 001e 0025     		movs	r5, #0
 588              		.loc 1 83 0
 589 0020 4746     		mov	r7, r8
 590              	.LVL26:
 591              	.L60:
 592              		.loc 1 82 0
 593 0022 57F8043F 		ldr	r3, [r7, #4]!
 594 0026 C82B     		cmp	r3, #200
 595              		.loc 1 84 0
 596 0028 4FF00003 		mov	r3, #0
 597              		.loc 1 88 0
 598 002c D8BF     		it	le
 599 002e 1946     		movle	r1, r3
 600 0030 05F10108 		add	r8, r5, #1
 601              		.loc 1 87 0
 602 0034 D4BF     		ite	le
 603 0036 0E46     		movle	r6, r1
 604              		.loc 1 83 0
 605 0038 0126     		movgt	r6, #1
 606              		.loc 1 84 0
 607 003a 1A46     		mov	r2, r3
 608 003c C8BF     		it	gt
 609 003e 0A21     		movgt	r1, #10
 610 0040 5FFA88F0 		uxtb	r0, r8
 611              		.loc 1 87 0
 612 0044 44F82560 		str	r6, [r4, r5, lsl #2]
 613              		.loc 1 88 0
 614 0048 FFF7FEFF 		bl	set_rgb_led
 615              	.LVL27:
 616              		.loc 1 91 0
 617 004c D4E90012 		ldrd	r1, r2, [r4]
 618 0050 A568     		ldr	r5, [r4, #8]
 619              	.LVL28:
 620              		.loc 1 90 0
 621 0052 E669     		ldr	r6, [r4, #28]
 622              		.loc 1 92 0
 623 0054 D4E90503 		ldrd	r0, r3, [r4, #20]
 624              		.loc 1 91 0
 625 0058 2A44     		add	r2, r2, r5
 626              		.loc 1 81 0
 627 005a 4546     		mov	r5, r8
ARM GAS  /tmp/ccNVaBhV.s 			page 12


 628              	.LVL29:
 629              		.loc 1 90 0
 630 005c 3144     		add	r1, r1, r6
 631              		.loc 1 92 0
 632 005e 0344     		add	r3, r3, r0
 633              		.loc 1 81 0
 634 0060 082D     		cmp	r5, #8
 635              		.loc 1 90 0
 636 0062 C9F80010 		str	r1, [r9]
 637              		.loc 1 91 0
 638 0066 CAF80020 		str	r2, [r10]
 639              		.loc 1 92 0
 640 006a CBF80030 		str	r3, [fp]
 641              		.loc 1 81 0
 642 006e D8D1     		bne	.L60
 643              	.LBE11:
 644              		.loc 1 95 0
 645 0070 054B     		ldr	r3, .L65
 646 0072 019A     		ldr	r2, [sp, #4]
 647 0074 1B68     		ldr	r3, [r3]
 648 0076 0548     		ldr	r0, .L65+4
 649 0078 9A42     		cmp	r2, r3
 650 007a 02D1     		bne	.L64
 651 007c 03B0     		add	sp, sp, #12
 652              		.cfi_remember_state
 653              		.cfi_def_cfa_offset 36
 654              		@ sp needed
 655 007e BDE8F08F 		pop	{r4, r5, r6, r7, r8, r9, r10, fp, pc}
 656              	.LVL30:
 657              	.L64:
 658              		.cfi_restore_state
 659 0082 FFF7FEFF 		bl	__stack_chk_fail
 660              	.LVL31:
 661              	.L66:
 662 0086 00BF     		.align	2
 663              	.L65:
 664 0088 00000000 		.word	__stack_chk_guard
 665 008c 00000000 		.word	.LANCHOR3
 666 0090 00000000 		.word	.LANCHOR4
 667 0094 00000000 		.word	.LANCHOR5
 668 0098 00000000 		.word	.LANCHOR6
 669              		.cfi_endproc
 670              	.LFE267:
 671              		.size	readBB, .-readBB
 672              		.section	.text.readOR,"ax",%progbits
 673              		.align	1
 674              		.p2align 4,,15
 675              		.global	readOR
 676              		.syntax unified
 677              		.thumb
 678              		.thumb_func
 679              		.fpu fpv4-sp-d16
 680              		.type	readOR, %function
 681              	readOR:
 682              	.LFB268:
 683              		.loc 1 97 0
 684              		.cfi_startproc
ARM GAS  /tmp/ccNVaBhV.s 			page 13


 685              		@ args = 0, pretend = 0, frame = 8
 686              		@ frame_needed = 0, uses_anonymous_args = 0
 687              	.LVL32:
 688 0000 2DE9F04F 		push	{r4, r5, r6, r7, r8, r9, r10, fp, lr}
 689              		.cfi_def_cfa_offset 36
 690              		.cfi_offset 4, -36
 691              		.cfi_offset 5, -32
 692              		.cfi_offset 6, -28
 693              		.cfi_offset 7, -24
 694              		.cfi_offset 8, -20
 695              		.cfi_offset 9, -16
 696              		.cfi_offset 10, -12
 697              		.cfi_offset 11, -8
 698              		.cfi_offset 14, -4
 699 0004 234B     		ldr	r3, .L77
 700 0006 244C     		ldr	r4, .L77+4
 701 0008 1B68     		ldr	r3, [r3]
 702 000a DFF89490 		ldr	r9, .L77+12
 703 000e DFF89480 		ldr	r8, .L77+16
 704 0012 224F     		ldr	r7, .L77+8
 705 0014 83B0     		sub	sp, sp, #12
 706              		.cfi_def_cfa_offset 48
 707              	.LBB12:
 708              		.loc 1 98 0
 709 0016 4FF0000C 		mov	ip, #0
 710              	.LBE12:
 711              		.loc 1 97 0
 712 001a 0193     		str	r3, [sp, #4]
 713              	.LVL33:
 714 001c 061F     		subs	r6, r0, #4
 715              	.LBB13:
 716              		.loc 1 104 0
 717 001e E346     		mov	fp, ip
 718              		.loc 1 100 0
 719 0020 4FF0010A 		mov	r10, #1
 720 0024 1BE0     		b	.L70
 721              	.LVL34:
 722              	.L75:
 723              		.loc 1 101 0
 724 0026 0022     		movs	r2, #0
 725 0028 1146     		mov	r1, r2
 726 002a 0A23     		movs	r3, #10
 727              		.loc 1 100 0
 728 002c 44F82CA0 		str	r10, [r4, ip, lsl #2]
 729              		.loc 1 101 0
 730 0030 FFF7FEFF 		bl	set_rgb_led
 731              	.LVL35:
 732              	.L69:
 733              		.loc 1 108 0 discriminator 2
 734 0034 D4E90120 		ldrd	r2, r0, [r4, #4]
 735              		.loc 1 109 0 discriminator 2
 736 0038 D4E90531 		ldrd	r3, r1, [r4, #20]
 737              		.loc 1 108 0 discriminator 2
 738 003c 0244     		add	r2, r2, r0
 739 003e E068     		ldr	r0, [r4, #12]
 740 0040 0244     		add	r2, r2, r0
 741              		.loc 1 109 0 discriminator 2
ARM GAS  /tmp/ccNVaBhV.s 			page 14


 742 0042 2069     		ldr	r0, [r4, #16]
 743              		.loc 1 108 0 discriminator 2
 744 0044 C8F80020 		str	r2, [r8]
 745              		.loc 1 109 0 discriminator 2
 746 0048 0B44     		add	r3, r3, r1
 747 004a 0344     		add	r3, r3, r0
 748              		.loc 1 107 0 discriminator 2
 749 004c E169     		ldr	r1, [r4, #28]
 750 004e 2068     		ldr	r0, [r4]
 751              		.loc 1 109 0 discriminator 2
 752 0050 3B60     		str	r3, [r7]
 753              		.loc 1 107 0 discriminator 2
 754 0052 0144     		add	r1, r1, r0
 755              		.loc 1 98 0 discriminator 2
 756 0054 082D     		cmp	r5, #8
 757              		.loc 1 107 0 discriminator 2
 758 0056 C9F80010 		str	r1, [r9]
 759              		.loc 1 98 0 discriminator 2
 760 005a AC46     		mov	ip, r5
 761              	.LVL36:
 762 005c 0ED0     		beq	.L74
 763              	.LVL37:
 764              	.L70:
 765              		.loc 1 99 0
 766 005e 56F8043F 		ldr	r3, [r6, #4]!
 767 0062 0CF10105 		add	r5, ip, #1
 768 0066 C72B     		cmp	r3, #199
 769 0068 E8B2     		uxtb	r0, r5
 770 006a DCDD     		ble	.L75
 771              		.loc 1 105 0
 772 006c 0023     		movs	r3, #0
 773 006e 1A46     		mov	r2, r3
 774 0070 1946     		mov	r1, r3
 775              		.loc 1 104 0
 776 0072 44F82CB0 		str	fp, [r4, ip, lsl #2]
 777              		.loc 1 105 0
 778 0076 FFF7FEFF 		bl	set_rgb_led
 779              	.LVL38:
 780 007a DBE7     		b	.L69
 781              	.LVL39:
 782              	.L74:
 783              	.LBE13:
 784              		.loc 1 112 0
 785 007c 054B     		ldr	r3, .L77
 786 007e 019A     		ldr	r2, [sp, #4]
 787 0080 1B68     		ldr	r3, [r3]
 788 0082 0548     		ldr	r0, .L77+4
 789 0084 9A42     		cmp	r2, r3
 790 0086 02D1     		bne	.L76
 791 0088 03B0     		add	sp, sp, #12
 792              		.cfi_remember_state
 793              		.cfi_def_cfa_offset 36
 794              		@ sp needed
 795 008a BDE8F08F 		pop	{r4, r5, r6, r7, r8, r9, r10, fp, pc}
 796              	.LVL40:
 797              	.L76:
 798              		.cfi_restore_state
ARM GAS  /tmp/ccNVaBhV.s 			page 15


 799 008e FFF7FEFF 		bl	__stack_chk_fail
 800              	.LVL41:
 801              	.L78:
 802 0092 00BF     		.align	2
 803              	.L77:
 804 0094 00000000 		.word	__stack_chk_guard
 805 0098 00000000 		.word	.LANCHOR7
 806 009c 00000000 		.word	.LANCHOR10
 807 00a0 00000000 		.word	.LANCHOR8
 808 00a4 00000000 		.word	.LANCHOR9
 809              		.cfi_endproc
 810              	.LFE268:
 811              		.size	readOR, .-readOR
 812              		.section	.text.set_fire,"ax",%progbits
 813              		.align	1
 814              		.p2align 4,,15
 815              		.global	set_fire
 816              		.syntax unified
 817              		.thumb
 818              		.thumb_func
 819              		.fpu fpv4-sp-d16
 820              		.type	set_fire, %function
 821              	set_fire:
 822              	.LFB269:
 823              		.loc 1 114 0
 824              		.cfi_startproc
 825              		@ args = 0, pretend = 0, frame = 8
 826              		@ frame_needed = 0, uses_anonymous_args = 0
 827 0000 10B5     		push	{r4, lr}
 828              		.cfi_def_cfa_offset 8
 829              		.cfi_offset 4, -8
 830              		.cfi_offset 14, -4
 831 0002 124C     		ldr	r4, .L84
 832 0004 82B0     		sub	sp, sp, #8
 833              		.cfi_def_cfa_offset 16
 834              		.loc 1 114 0
 835 0006 2368     		ldr	r3, [r4]
 836 0008 0193     		str	r3, [sp, #4]
 837              		.loc 1 115 0
 838 000a 0121     		movs	r1, #1
 839 000c 0220     		movs	r0, #2
 840 000e FFF7FEFF 		bl	set_led
 841              	.LVL42:
 842              		.loc 1 116 0
 843 0012 0121     		movs	r1, #1
 844 0014 0320     		movs	r0, #3
 845 0016 FFF7FEFF 		bl	set_led
 846              	.LVL43:
 847              		.loc 1 117 0
 848 001a 0121     		movs	r1, #1
 849 001c 0420     		movs	r0, #4
 850 001e FFF7FEFF 		bl	set_led
 851              	.LVL44:
 852              		.loc 1 118 0
 853 0022 0121     		movs	r1, #1
 854 0024 0620     		movs	r0, #6
 855 0026 FFF7FEFF 		bl	set_led
ARM GAS  /tmp/ccNVaBhV.s 			page 16


 856              	.LVL45:
 857              		.loc 1 119 0
 858 002a 0121     		movs	r1, #1
 859 002c 0720     		movs	r0, #7
 860 002e FFF7FEFF 		bl	set_led
 861              	.LVL46:
 862              		.loc 1 120 0
 863 0032 019A     		ldr	r2, [sp, #4]
 864 0034 2368     		ldr	r3, [r4]
 865 0036 9A42     		cmp	r2, r3
 866 0038 06D1     		bne	.L83
 867 003a 0121     		movs	r1, #1
 868 003c 0820     		movs	r0, #8
 869              		.loc 1 121 0
 870 003e 02B0     		add	sp, sp, #8
 871              		.cfi_remember_state
 872              		.cfi_def_cfa_offset 8
 873              		@ sp needed
 874 0040 BDE81040 		pop	{r4, lr}
 875              		.cfi_restore 14
 876              		.cfi_restore 4
 877              		.cfi_def_cfa_offset 0
 878              		.loc 1 120 0
 879 0044 FFF7FEBF 		b	set_led
 880              	.LVL47:
 881              	.L83:
 882              		.cfi_restore_state
 883 0048 FFF7FEFF 		bl	__stack_chk_fail
 884              	.LVL48:
 885              	.L85:
 886              		.align	2
 887              	.L84:
 888 004c 00000000 		.word	__stack_chk_guard
 889              		.cfi_endproc
 890              	.LFE269:
 891              		.size	set_fire, .-set_fire
 892              		.section	.text.BB_contains,"ax",%progbits
 893              		.align	1
 894              		.p2align 4,,15
 895              		.global	BB_contains
 896              		.syntax unified
 897              		.thumb
 898              		.thumb_func
 899              		.fpu fpv4-sp-d16
 900              		.type	BB_contains, %function
 901              	BB_contains:
 902              	.LFB270:
 903              		.loc 1 123 0
 904              		.cfi_startproc
 905              		@ args = 0, pretend = 0, frame = 8
 906              		@ frame_needed = 0, uses_anonymous_args = 0
 907 0000 00B5     		push	{lr}
 908              		.cfi_def_cfa_offset 4
 909              		.cfi_offset 14, -4
 910              	.LBB14:
 911              		.loc 1 125 0
 912 0002 0B4A     		ldr	r2, .L93
ARM GAS  /tmp/ccNVaBhV.s 			page 17


 913              	.LBE14:
 914              		.loc 1 123 0
 915 0004 0B4B     		ldr	r3, .L93+4
 916              	.LBB15:
 917              		.loc 1 125 0
 918 0006 1268     		ldr	r2, [r2]
 919              	.LBE15:
 920              		.loc 1 123 0
 921 0008 1968     		ldr	r1, [r3]
 922 000a 83B0     		sub	sp, sp, #12
 923              		.cfi_def_cfa_offset 16
 924              	.LBB16:
 925              		.loc 1 125 0
 926 000c 012A     		cmp	r2, #1
 927              	.LBE16:
 928              		.loc 1 123 0
 929 000e 0191     		str	r1, [sp, #4]
 930              	.LVL49:
 931              	.LBB17:
 932              		.loc 1 125 0
 933 0010 09D0     		beq	.L91
 934              		.loc 1 130 0
 935 0012 094A     		ldr	r2, .L93+8
 936 0014 0021     		movs	r1, #0
 937 0016 1170     		strb	r1, [r2]
 938              	.L86:
 939              	.LBE17:
 940              		.loc 1 134 0
 941 0018 019A     		ldr	r2, [sp, #4]
 942 001a 1B68     		ldr	r3, [r3]
 943 001c 9A42     		cmp	r2, r3
 944 001e 05D1     		bne	.L92
 945 0020 03B0     		add	sp, sp, #12
 946              		.cfi_remember_state
 947              		.cfi_def_cfa_offset 4
 948              		@ sp needed
 949 0022 5DF804FB 		ldr	pc, [sp], #4
 950              	.L91:
 951              		.cfi_restore_state
 952              	.LBB18:
 953              		.loc 1 126 0
 954 0026 0449     		ldr	r1, .L93+8
 955 0028 0A70     		strb	r2, [r1]
 956              		.loc 1 127 0
 957 002a F5E7     		b	.L86
 958              	.L92:
 959              	.LBE18:
 960              		.loc 1 134 0
 961 002c FFF7FEFF 		bl	__stack_chk_fail
 962              	.LVL50:
 963              	.L94:
 964              		.align	2
 965              	.L93:
 966 0030 00000000 		.word	.LANCHOR3
 967 0034 00000000 		.word	__stack_chk_guard
 968 0038 00000000 		.word	.LANCHOR11
 969              		.cfi_endproc
ARM GAS  /tmp/ccNVaBhV.s 			page 18


 970              	.LFE270:
 971              		.size	BB_contains, .-BB_contains
 972              		.section	.text.OR_contains,"ax",%progbits
 973              		.align	1
 974              		.p2align 4,,15
 975              		.global	OR_contains
 976              		.syntax unified
 977              		.thumb
 978              		.thumb_func
 979              		.fpu fpv4-sp-d16
 980              		.type	OR_contains, %function
 981              	OR_contains:
 982              	.LFB271:
 983              		.loc 1 136 0
 984              		.cfi_startproc
 985              		@ args = 0, pretend = 0, frame = 8
 986              		@ frame_needed = 0, uses_anonymous_args = 0
 987 0000 00B5     		push	{lr}
 988              		.cfi_def_cfa_offset 4
 989              		.cfi_offset 14, -4
 990              	.LBB19:
 991              		.loc 1 138 0
 992 0002 0B4A     		ldr	r2, .L102
 993              	.LBE19:
 994              		.loc 1 136 0
 995 0004 0B4B     		ldr	r3, .L102+4
 996              	.LBB20:
 997              		.loc 1 138 0
 998 0006 1268     		ldr	r2, [r2]
 999              	.LBE20:
 1000              		.loc 1 136 0
 1001 0008 1968     		ldr	r1, [r3]
 1002 000a 83B0     		sub	sp, sp, #12
 1003              		.cfi_def_cfa_offset 16
 1004              	.LBB21:
 1005              		.loc 1 138 0
 1006 000c 012A     		cmp	r2, #1
 1007              	.LBE21:
 1008              		.loc 1 136 0
 1009 000e 0191     		str	r1, [sp, #4]
 1010              	.LVL51:
 1011              	.LBB22:
 1012              		.loc 1 138 0
 1013 0010 09D0     		beq	.L100
 1014              		.loc 1 143 0
 1015 0012 094A     		ldr	r2, .L102+8
 1016 0014 0021     		movs	r1, #0
 1017 0016 1170     		strb	r1, [r2]
 1018              	.L95:
 1019              	.LBE22:
 1020              		.loc 1 147 0
 1021 0018 019A     		ldr	r2, [sp, #4]
 1022 001a 1B68     		ldr	r3, [r3]
 1023 001c 9A42     		cmp	r2, r3
 1024 001e 05D1     		bne	.L101
 1025 0020 03B0     		add	sp, sp, #12
 1026              		.cfi_remember_state
ARM GAS  /tmp/ccNVaBhV.s 			page 19


 1027              		.cfi_def_cfa_offset 4
 1028              		@ sp needed
 1029 0022 5DF804FB 		ldr	pc, [sp], #4
 1030              	.L100:
 1031              		.cfi_restore_state
 1032              	.LBB23:
 1033              		.loc 1 139 0
 1034 0026 0449     		ldr	r1, .L102+8
 1035 0028 0A70     		strb	r2, [r1]
 1036              		.loc 1 140 0
 1037 002a F5E7     		b	.L95
 1038              	.L101:
 1039              	.LBE23:
 1040              		.loc 1 147 0
 1041 002c FFF7FEFF 		bl	__stack_chk_fail
 1042              	.LVL52:
 1043              	.L103:
 1044              		.align	2
 1045              	.L102:
 1046 0030 00000000 		.word	.LANCHOR7
 1047 0034 00000000 		.word	__stack_chk_guard
 1048 0038 00000000 		.word	.LANCHOR12
 1049              		.cfi_endproc
 1050              	.LFE271:
 1051              		.size	OR_contains, .-OR_contains
 1052              		.section	.text.mode_switch,"ax",%progbits
 1053              		.align	1
 1054              		.p2align 4,,15
 1055              		.global	mode_switch
 1056              		.syntax unified
 1057              		.thumb
 1058              		.thumb_func
 1059              		.fpu fpv4-sp-d16
 1060              		.type	mode_switch, %function
 1061              	mode_switch:
 1062              	.LFB272:
 1063              		.loc 1 148 0
 1064              		.cfi_startproc
 1065              		@ args = 0, pretend = 0, frame = 8
 1066              		@ frame_needed = 0, uses_anonymous_args = 0
 1067 0000 00B5     		push	{lr}
 1068              		.cfi_def_cfa_offset 4
 1069              		.cfi_offset 14, -4
 1070              		.loc 1 149 0
 1071 0002 0E4A     		ldr	r2, .L113
 1072              		.loc 1 148 0
 1073 0004 0E4B     		ldr	r3, .L113+4
 1074              		.loc 1 149 0
 1075 0006 1278     		ldrb	r2, [r2]	@ zero_extendqisi2
 1076              		.loc 1 148 0
 1077 0008 1968     		ldr	r1, [r3]
 1078 000a 83B0     		sub	sp, sp, #12
 1079              		.cfi_def_cfa_offset 16
 1080              		.loc 1 148 0
 1081 000c 0191     		str	r1, [sp, #4]
 1082              		.loc 1 149 0
 1083 000e 7AB9     		cbnz	r2, .L110
ARM GAS  /tmp/ccNVaBhV.s 			page 20


 1084              		.loc 1 150 0
 1085 0010 0C4A     		ldr	r2, .L113+8
 1086 0012 1278     		ldrb	r2, [r2]	@ zero_extendqisi2
 1087 0014 42B9     		cbnz	r2, .L111
 1088              		.loc 1 151 0
 1089 0016 0C49     		ldr	r1, .L113+12
 1090 0018 0A60     		str	r2, [r1]
 1091              	.L104:
 1092              		.loc 1 152 0
 1093 001a 019A     		ldr	r2, [sp, #4]
 1094 001c 1B68     		ldr	r3, [r3]
 1095 001e 9A42     		cmp	r2, r3
 1096 0020 0AD1     		bne	.L112
 1097 0022 03B0     		add	sp, sp, #12
 1098              		.cfi_remember_state
 1099              		.cfi_def_cfa_offset 4
 1100              		@ sp needed
 1101 0024 5DF804FB 		ldr	pc, [sp], #4
 1102              	.L111:
 1103              		.cfi_restore_state
 1104              		.loc 1 150 0 discriminator 1
 1105 0028 074A     		ldr	r2, .L113+12
 1106 002a 0221     		movs	r1, #2
 1107 002c 1160     		str	r1, [r2]
 1108 002e F4E7     		b	.L104
 1109              	.L110:
 1110              		.loc 1 149 0 discriminator 1
 1111 0030 054A     		ldr	r2, .L113+12
 1112 0032 0121     		movs	r1, #1
 1113 0034 1160     		str	r1, [r2]
 1114 0036 F0E7     		b	.L104
 1115              	.L112:
 1116              		.loc 1 152 0
 1117 0038 FFF7FEFF 		bl	__stack_chk_fail
 1118              	.LVL53:
 1119              	.L114:
 1120              		.align	2
 1121              	.L113:
 1122 003c 00000000 		.word	.LANCHOR12
 1123 0040 00000000 		.word	__stack_chk_guard
 1124 0044 00000000 		.word	.LANCHOR11
 1125 0048 00000000 		.word	.LANCHOR13
 1126              		.cfi_endproc
 1127              	.LFE272:
 1128              		.size	mode_switch, .-mode_switch
 1129              		.section	.text.startup.main,"ax",%progbits
 1130              		.align	1
 1131              		.p2align 4,,15
 1132              		.global	main
 1133              		.syntax unified
 1134              		.thumb
 1135              		.thumb_func
 1136              		.fpu fpv4-sp-d16
 1137              		.type	main, %function
 1138              	main:
 1139              	.LFB273:
 1140              		.loc 1 160 0
ARM GAS  /tmp/ccNVaBhV.s 			page 21


 1141              		.cfi_startproc
 1142              		@ args = 0, pretend = 0, frame = 40
 1143              		@ frame_needed = 0, uses_anonymous_args = 0
 1144 0000 2DE9F04F 		push	{r4, r5, r6, r7, r8, r9, r10, fp, lr}
 1145              		.cfi_def_cfa_offset 36
 1146              		.cfi_offset 4, -36
 1147              		.cfi_offset 5, -32
 1148              		.cfi_offset 6, -28
 1149              		.cfi_offset 7, -24
 1150              		.cfi_offset 8, -20
 1151              		.cfi_offset 9, -16
 1152              		.cfi_offset 10, -12
 1153              		.cfi_offset 11, -8
 1154              		.cfi_offset 14, -4
 1155 0004 6E4B     		ldr	r3, .L174
 1156              		.loc 1 161 0
 1157 0006 6F4A     		ldr	r2, .L174+4
 1158              		.loc 1 160 0
 1159 0008 1B68     		ldr	r3, [r3]
 1160              		.loc 1 161 0
 1161 000a 6F49     		ldr	r1, .L174+8
 1162 000c 6F48     		ldr	r0, .L174+12
 1163 000e DFF8D4B1 		ldr	fp, .L174+36
 1164 0012 DFF8D4A1 		ldr	r10, .L174+40
 1165 0016 6E4E     		ldr	r6, .L174+16
 1166 0018 DFF8D081 		ldr	r8, .L174+44
 1167 001c 6D4F     		ldr	r7, .L174+20
 1168              		.loc 1 160 0
 1169 001e 8BB0     		sub	sp, sp, #44
 1170              		.cfi_def_cfa_offset 80
 1171              		.loc 1 160 0
 1172 0020 0993     		str	r3, [sp, #36]
 1173              		.loc 1 161 0
 1174 0022 FFF7FEFF 		bl	messagebus_init
 1175              	.LVL54:
 1176              		.loc 1 162 0
 1177 0026 FFF7FEFF 		bl	halInit
 1178              	.LVL55:
 1179              		.loc 1 163 0
 1180 002a FFF7FEFF 		bl	chSysInit
 1181              	.LVL56:
 1182              		.loc 1 164 0
 1183 002e FFF7FEFF 		bl	mpu_init
 1184              	.LVL57:
 1185              		.loc 1 165 0
 1186 0032 FFF7FEFF 		bl	VL53L0X_start
 1187              	.LVL58:
 1188              		.loc 1 166 0
 1189 0036 FFF7FEFF 		bl	clear_leds
 1190              	.LVL59:
 1191              		.loc 1 167 0
 1192 003a FFF7FEFF 		bl	spi_comm_start
 1193              	.LVL60:
 1194              		.loc 1 168 0
 1195 003e FFF7FEFF 		bl	motors_init
 1196              	.LVL61:
 1197              		.loc 1 169 0
ARM GAS  /tmp/ccNVaBhV.s 			page 22


 1198 0042 FFF7FEFF 		bl	proximity_start
 1199              	.LVL62:
 1200              		.loc 1 170 0
 1201 0046 FFF7FEFF 		bl	calibrate_ir
 1202              	.LVL63:
 1203              		.loc 1 172 0
 1204 004a FFF7FEFF 		bl	serial_start
 1205              	.LVL64:
 1206              	.L117:
 1207 004e 6D46     		mov	r5, sp
 1208              	.LBB24:
 1209              	.LBB25:
 1210              		.loc 1 180 0
 1211 0050 0024     		movs	r4, #0
 1212              	.LVL65:
 1213              	.L118:
 1214              		.loc 1 180 0 is_stmt 0 discriminator 3
 1215 0052 2046     		mov	r0, r4
 1216 0054 FFF7FEFF 		bl	get_prox
 1217              	.LVL66:
 1218 0058 0134     		adds	r4, r4, #1
 1219              	.LVL67:
 1220 005a 082C     		cmp	r4, #8
 1221 005c 45F8040F 		str	r0, [r5, #4]!
 1222 0060 F7D1     		bne	.L118
 1223              	.LBE25:
 1224              		.loc 1 181 0 is_stmt 1
 1225 0062 01A8     		add	r0, sp, #4
 1226 0064 FFF7FEFF 		bl	readBB
 1227              	.LVL68:
 1228 0068 0124     		movs	r4, #1
 1229              	.LVL69:
 1230 006a 8146     		mov	r9, r0
 1231              	.LVL70:
 1232 006c 051F     		subs	r5, r0, #4
 1233              	.LVL71:
 1234              	.L119:
 1235              	.LBB26:
 1236              		.loc 1 182 0 discriminator 3
 1237 006e E0B2     		uxtb	r0, r4
 1238 0070 55F8041F 		ldr	r1, [r5, #4]!
 1239 0074 0134     		adds	r4, r4, #1
 1240              	.LVL72:
 1241 0076 FFF7FEFF 		bl	set_led
 1242              	.LVL73:
 1243 007a 092C     		cmp	r4, #9
 1244 007c F7D1     		bne	.L119
 1245              	.LBE26:
 1246              		.loc 1 183 0
 1247 007e FFF7FEFF 		bl	set_fire
 1248              	.LVL74:
 1249              		.loc 1 184 0
 1250 0082 FFF7FEFF 		bl	VL53L0X_get_dist_mm
 1251              	.LVL75:
 1252 0086 0446     		mov	r4, r0
 1253              	.LVL76:
 1254              		.loc 1 185 0
ARM GAS  /tmp/ccNVaBhV.s 			page 23


 1255 0088 FFF7FEFF 		bl	get_selector
 1256              	.LVL77:
 1257              		.loc 1 186 0
 1258 008c 08B3     		cbz	r0, .L120
 1259 008e 0928     		cmp	r0, #9
 1260 0090 DDD1     		bne	.L117
 1261              	.LVL78:
 1262              	.L121:
 1263              		.loc 1 241 0
 1264 0092 3378     		ldrb	r3, [r6]	@ zero_extendqisi2
 1265 0094 0BB1     		cbz	r3, .L135
 1266              		.loc 1 241 0 is_stmt 0 discriminator 1
 1267 0096 1E2C     		cmp	r4, #30
 1268 0098 52DC     		bgt	.L168
 1269              	.L135:
 1270              		.loc 1 242 0 is_stmt 1
 1271 009a D8F80030 		ldr	r3, [r8]
 1272 009e 3A68     		ldr	r2, [r7]
 1273 00a0 002B     		cmp	r3, #0
 1274 00a2 33DD     		ble	.L137
 1275              		.loc 1 242 0 is_stmt 0 discriminator 1
 1276 00a4 002A     		cmp	r2, #0
 1277 00a6 48D0     		beq	.L169
 1278              	.L138:
 1279              		.loc 1 244 0 is_stmt 1
 1280 00a8 DAF80030 		ldr	r3, [r10]
 1281 00ac 4A4A     		ldr	r2, .L174+24
 1282 00ae 002B     		cmp	r3, #0
 1283 00b0 1268     		ldr	r2, [r2]
 1284 00b2 3BDD     		ble	.L139
 1285              		.loc 1 244 0 is_stmt 0 discriminator 1
 1286 00b4 002A     		cmp	r2, #0
 1287 00b6 4AD0     		beq	.L170
 1288              	.L140:
 1289              		.loc 1 246 0 is_stmt 1
 1290 00b8 1D2C     		cmp	r4, #29
 1291 00ba 4BDD     		ble	.L171
 1292              		.loc 1 247 0
 1293 00bc DBF80030 		ldr	r3, [fp]
 1294 00c0 002B     		cmp	r3, #0
 1295 00c2 C4D0     		beq	.L117
 1296              	.LBB27:
 1297              	.LBB28:
 1298              		.loc 1 50 0
 1299 00c4 0020     		movs	r0, #0
 1300 00c6 FFF7FEFF 		bl	left_motor_set_speed
 1301              	.LVL79:
 1302              		.loc 1 51 0
 1303 00ca 0020     		movs	r0, #0
 1304 00cc FFF7FEFF 		bl	right_motor_set_speed
 1305              	.LVL80:
 1306 00d0 BDE7     		b	.L117
 1307              	.LVL81:
 1308              	.L120:
 1309              	.LBE28:
 1310              	.LBE27:
 1311              		.loc 1 188 0
ARM GAS  /tmp/ccNVaBhV.s 			page 24


 1312 00d2 0120     		movs	r0, #1
 1313              	.LVL82:
 1314 00d4 FFF7FEFF 		bl	set_body_led
 1315              	.LVL83:
 1316              		.loc 1 189 0
 1317 00d8 D9F80030 		ldr	r3, [r9]
 1318 00dc D9F81C20 		ldr	r2, [r9, #28]
 1319 00e0 002B     		cmp	r3, #0
 1320 00e2 1AD1     		bne	.L122
 1321              		.loc 1 189 0 is_stmt 0 discriminator 1
 1322 00e4 002A     		cmp	r2, #0
 1323 00e6 49D0     		beq	.L172
 1324              		.loc 1 196 0 is_stmt 1
 1325 00e8 1DDC     		bgt	.L126
 1326              	.L125:
 1327              		.loc 1 204 0
 1328 00ea 3B49     		ldr	r1, .L174+24
 1329 00ec 0968     		ldr	r1, [r1]
 1330 00ee 0029     		cmp	r1, #0
 1331 00f0 33DD     		ble	.L127
 1332              		.loc 1 204 0 is_stmt 0 discriminator 1
 1333 00f2 DBF80030 		ldr	r3, [fp]
 1334 00f6 002B     		cmp	r3, #0
 1335 00f8 43DD     		ble	.L128
 1336              		.loc 1 206 0 is_stmt 1
 1337 00fa 002A     		cmp	r2, #0
 1338 00fc C9DD     		ble	.L121
 1339              	.L129:
 1340              		.loc 1 208 0
 1341 00fe FFF7FEFF 		bl	turn_right
 1342              	.LVL84:
 1343              		.loc 1 206 0
 1344 0102 D9F81C30 		ldr	r3, [r9, #28]
 1345 0106 002B     		cmp	r3, #0
 1346 0108 F9DC     		bgt	.L129
 1347 010a C2E7     		b	.L121
 1348              	.L137:
 1349              		.loc 1 243 0
 1350 010c 002A     		cmp	r2, #0
 1351 010e CBDD     		ble	.L138
 1352              		.loc 1 243 0 is_stmt 0 discriminator 1
 1353 0110 002B     		cmp	r3, #0
 1354 0112 C9D1     		bne	.L138
 1355              		.loc 1 243 0 discriminator 2
 1356 0114 FFF7FEFF 		bl	turn_right
 1357              	.LVL85:
 1358 0118 99E7     		b	.L117
 1359              	.L122:
 1360              		.loc 1 192 0 is_stmt 1
 1361 011a 00DD     		ble	.L124
 1362              		.loc 1 192 0 is_stmt 0 discriminator 1
 1363 011c A2B1     		cbz	r2, .L134
 1364              	.L124:
 1365              		.loc 1 200 0 is_stmt 1
 1366 011e 012B     		cmp	r3, #1
 1367 0120 E3D1     		bne	.L125
 1368              		.loc 1 200 0 is_stmt 0 discriminator 1
ARM GAS  /tmp/ccNVaBhV.s 			page 25


 1369 0122 012A     		cmp	r2, #1
 1370 0124 E1D1     		bne	.L125
 1371              	.L126:
 1372              		.loc 1 198 0 is_stmt 1
 1373 0126 FFF7FEFF 		bl	turn_right
 1374              	.LVL86:
 1375 012a B2E7     		b	.L121
 1376              	.L139:
 1377              		.loc 1 245 0
 1378 012c 002A     		cmp	r2, #0
 1379 012e C3DD     		ble	.L140
 1380              		.loc 1 245 0 is_stmt 0 discriminator 1
 1381 0130 002B     		cmp	r3, #0
 1382 0132 C1D1     		bne	.L140
 1383              		.loc 1 245 0 discriminator 2
 1384 0134 FFF7FEFF 		bl	move_right
 1385              	.LVL87:
 1386 0138 89E7     		b	.L117
 1387              	.L169:
 1388              		.loc 1 242 0 is_stmt 1 discriminator 2
 1389 013a FFF7FEFF 		bl	turn_left
 1390              	.LVL88:
 1391 013e 86E7     		b	.L117
 1392              	.L168:
 1393              		.loc 1 241 0 discriminator 2
 1394 0140 FFF7FEFF 		bl	move_forward
 1395              	.LVL89:
 1396 0144 83E7     		b	.L117
 1397              	.L173:
 1398              		.loc 1 220 0 discriminator 1
 1399 0146 09BB     		cbnz	r1, .L131
 1400              	.L134:
 1401              		.loc 1 194 0
 1402 0148 FFF7FEFF 		bl	turn_left
 1403              	.LVL90:
 1404 014c A1E7     		b	.L121
 1405              	.L170:
 1406              		.loc 1 244 0 discriminator 2
 1407 014e FFF7FEFF 		bl	move_left
 1408              	.LVL91:
 1409 0152 7CE7     		b	.L117
 1410              	.L171:
 1411              		.loc 1 246 0 discriminator 1
 1412 0154 FFF7FEFF 		bl	move_back
 1413              	.LVL92:
 1414 0158 79E7     		b	.L117
 1415              	.L127:
 1416              		.loc 1 212 0
 1417 015a DAF80020 		ldr	r2, [r10]
 1418 015e 002A     		cmp	r2, #0
 1419 0160 14DD     		ble	.L131
 1420 0162 DBF80020 		ldr	r2, [fp]
 1421 0166 002A     		cmp	r2, #0
 1422 0168 EDDD     		ble	.L173
 1423              		.loc 1 214 0
 1424 016a 002B     		cmp	r3, #0
 1425 016c 91DD     		ble	.L121
ARM GAS  /tmp/ccNVaBhV.s 			page 26


 1426              	.L133:
 1427              		.loc 1 216 0
 1428 016e FFF7FEFF 		bl	turn_left
 1429              	.LVL93:
 1430              		.loc 1 214 0
 1431 0172 D9F80030 		ldr	r3, [r9]
 1432 0176 002B     		cmp	r3, #0
 1433 0178 F9DC     		bgt	.L133
 1434 017a 8AE7     		b	.L121
 1435              	.L172:
 1436              		.loc 1 190 0
 1437 017c FFF7FEFF 		bl	move_forward
 1438              	.LVL94:
 1439 0180 87E7     		b	.L121
 1440              	.L128:
 1441              		.loc 1 212 0
 1442 0182 DAF80030 		ldr	r3, [r10]
 1443 0186 002B     		cmp	r3, #0
 1444 0188 00DC     		bgt	.L131
 1445              		.loc 1 223 0 discriminator 1
 1446 018a CCD0     		beq	.L126
 1447              	.L131:
 1448              	.LVL95:
 1449              	.LBB29:
 1450              	.LBB30:
 1451              		.loc 1 77 0
 1452 018c FFF7FEFF 		bl	rand
 1453              	.LVL96:
 1454 0190 124B     		ldr	r3, .L174+28
 1455 0192 83FB0032 		smull	r3, r2, r3, r0
 1456 0196 C317     		asrs	r3, r0, #31
 1457 0198 C3EBA213 		rsb	r3, r3, r2, asr #6
 1458 019c 40F29112 		movw	r2, #401
 1459 01a0 02FB1303 		mls	r3, r2, r3, r0
 1460              	.LBE30:
 1461              	.LBE29:
 1462              		.loc 1 234 0
 1463 01a4 6FF06300 		mvn	r0, #99
 1464              	.LBB33:
 1465              	.LBB31:
 1466              		.loc 1 77 0
 1467 01a8 03F16402 		add	r2, r3, #100
 1468              	.LBE31:
 1469              	.LBE33:
 1470              		.loc 1 234 0
 1471 01ac C01A     		subs	r0, r0, r3
 1472              	.LBB34:
 1473              	.LBB32:
 1474              		.loc 1 77 0
 1475 01ae 0C4B     		ldr	r3, .L174+32
 1476 01b0 1D46     		mov	r5, r3
 1477 01b2 1A60     		str	r2, [r3]
 1478              	.LBE32:
 1479              	.LBE34:
 1480              		.loc 1 234 0
 1481 01b4 FFF7FEFF 		bl	left_motor_set_speed
 1482              	.LVL97:
ARM GAS  /tmp/ccNVaBhV.s 			page 27


 1483              		.loc 1 235 0
 1484 01b8 2868     		ldr	r0, [r5]
 1485 01ba FFF7FEFF 		bl	right_motor_set_speed
 1486              	.LVL98:
 1487 01be 68E7     		b	.L121
 1488              	.L175:
 1489              		.align	2
 1490              	.L174:
 1491 01c0 00000000 		.word	__stack_chk_guard
 1492 01c4 00000000 		.word	.LANCHOR14
 1493 01c8 00000000 		.word	.LANCHOR15
 1494 01cc 00000000 		.word	.LANCHOR16
 1495 01d0 00000000 		.word	.LANCHOR12
 1496 01d4 00000000 		.word	.LANCHOR9
 1497 01d8 00000000 		.word	.LANCHOR6
 1498 01dc 699CDB28 		.word	685481065
 1499 01e0 00000000 		.word	.LANCHOR2
 1500 01e4 00000000 		.word	.LANCHOR4
 1501 01e8 00000000 		.word	.LANCHOR5
 1502 01ec 00000000 		.word	.LANCHOR10
 1503              	.LBE24:
 1504              		.cfi_endproc
 1505              	.LFE273:
 1506              		.size	main, .-main
 1507              		.section	.text.__stack_chk_fail,"ax",%progbits
 1508              		.align	1
 1509              		.p2align 4,,15
 1510              		.global	__stack_chk_fail
 1511              		.syntax unified
 1512              		.thumb
 1513              		.thumb_func
 1514              		.fpu fpv4-sp-d16
 1515              		.type	__stack_chk_fail, %function
 1516              	__stack_chk_fail:
 1517              	.LFB274:
 1518              		.loc 1 261 0
 1519              		.cfi_startproc
 1520              		@ args = 0, pretend = 0, frame = 8
 1521              		@ frame_needed = 0, uses_anonymous_args = 0
 1522 0000 00B5     		push	{lr}
 1523              		.cfi_def_cfa_offset 4
 1524              		.cfi_offset 14, -4
 1525 0002 084B     		ldr	r3, .L181
 1526 0004 83B0     		sub	sp, sp, #12
 1527              		.cfi_def_cfa_offset 16
 1528              		.loc 1 261 0
 1529 0006 1A68     		ldr	r2, [r3]
 1530 0008 0192     		str	r2, [sp, #4]
 1531              		.loc 1 262 0
 1532 000a 019A     		ldr	r2, [sp, #4]
 1533 000c 1B68     		ldr	r3, [r3]
 1534 000e 9A42     		cmp	r2, r3
 1535 0010 05D1     		bne	.L180
 1536 0012 0548     		ldr	r0, .L181+4
 1537              		.loc 1 263 0
 1538 0014 03B0     		add	sp, sp, #12
 1539              		.cfi_remember_state
ARM GAS  /tmp/ccNVaBhV.s 			page 28


 1540              		.cfi_def_cfa_offset 4
 1541              		@ sp needed
 1542 0016 5DF804EB 		ldr	lr, [sp], #4
 1543              		.cfi_restore 14
 1544              		.cfi_def_cfa_offset 0
 1545              		.loc 1 262 0
 1546 001a FFF7FEBF 		b	chSysHalt
 1547              	.LVL99:
 1548              	.L180:
 1549              		.cfi_restore_state
 1550 001e FFF7FEFF 		bl	__stack_chk_fail
 1551              	.LVL100:
 1552              	.L182:
 1553 0022 00BF     		.align	2
 1554              	.L181:
 1555 0024 00000000 		.word	__stack_chk_guard
 1556 0028 00000000 		.word	.LC0
 1557              		.cfi_endproc
 1558              	.LFE274:
 1559              		.size	__stack_chk_fail, .-__stack_chk_fail
 1560              		.global	__stack_chk_guard
 1561              		.global	bus_condvar
 1562              		.global	bus_lock
 1563              		.global	bus
 1564              		.global	dist
 1565              		.global	n
 1566              		.global	LO_flag
 1567              		.global	RO_flag
 1568              		.global	FO_flag
 1569              		.global	L_flag
 1570              		.global	R_flag
 1571              		.global	F_flag
 1572              		.global	sw
 1573              		.global	OR_flag
 1574              		.global	BB_flag
 1575              		.global	orArr
 1576              		.global	dirArr
 1577              		.global	motor_speed_r
 1578              		.global	motor_speed
 1579              		.section	.bss.BB_flag,"aw",%nobits
 1580              		.set	.LANCHOR11,. + 0
 1581              		.type	BB_flag, %object
 1582              		.size	BB_flag, 1
 1583              	BB_flag:
 1584 0000 00       		.space	1
 1585              		.section	.bss.FO_flag,"aw",%nobits
 1586              		.align	2
 1587              		.set	.LANCHOR8,. + 0
 1588              		.type	FO_flag, %object
 1589              		.size	FO_flag, 4
 1590              	FO_flag:
 1591 0000 00000000 		.space	4
 1592              		.section	.bss.F_flag,"aw",%nobits
 1593              		.align	2
 1594              		.set	.LANCHOR4,. + 0
 1595              		.type	F_flag, %object
 1596              		.size	F_flag, 4
ARM GAS  /tmp/ccNVaBhV.s 			page 29


 1597              	F_flag:
 1598 0000 00000000 		.space	4
 1599              		.section	.bss.LO_flag,"aw",%nobits
 1600              		.align	2
 1601              		.set	.LANCHOR10,. + 0
 1602              		.type	LO_flag, %object
 1603              		.size	LO_flag, 4
 1604              	LO_flag:
 1605 0000 00000000 		.space	4
 1606              		.section	.bss.L_flag,"aw",%nobits
 1607              		.align	2
 1608              		.set	.LANCHOR6,. + 0
 1609              		.type	L_flag, %object
 1610              		.size	L_flag, 4
 1611              	L_flag:
 1612 0000 00000000 		.space	4
 1613              		.section	.bss.OR_flag,"aw",%nobits
 1614              		.set	.LANCHOR12,. + 0
 1615              		.type	OR_flag, %object
 1616              		.size	OR_flag, 1
 1617              	OR_flag:
 1618 0000 00       		.space	1
 1619              		.section	.bss.RO_flag,"aw",%nobits
 1620              		.align	2
 1621              		.set	.LANCHOR9,. + 0
 1622              		.type	RO_flag, %object
 1623              		.size	RO_flag, 4
 1624              	RO_flag:
 1625 0000 00000000 		.space	4
 1626              		.section	.bss.R_flag,"aw",%nobits
 1627              		.align	2
 1628              		.set	.LANCHOR5,. + 0
 1629              		.type	R_flag, %object
 1630              		.size	R_flag, 4
 1631              	R_flag:
 1632 0000 00000000 		.space	4
 1633              		.section	.bss.bus,"aw",%nobits
 1634              		.align	2
 1635              		.set	.LANCHOR16,. + 0
 1636              		.type	bus, %object
 1637              		.size	bus, 12
 1638              	bus:
 1639 0000 00000000 		.space	12
 1639      00000000 
 1639      00000000 
 1640              		.section	.bss.dirArr,"aw",%nobits
 1641              		.align	2
 1642              		.set	.LANCHOR3,. + 0
 1643              		.type	dirArr, %object
 1644              		.size	dirArr, 32
 1645              	dirArr:
 1646 0000 00000000 		.space	32
 1646      00000000 
 1646      00000000 
 1646      00000000 
 1646      00000000 
 1647              		.section	.bss.dist,"aw",%nobits
ARM GAS  /tmp/ccNVaBhV.s 			page 30


 1648              		.align	2
 1649              		.type	dist, %object
 1650              		.size	dist, 4
 1651              	dist:
 1652 0000 00000000 		.space	4
 1653              		.section	.bss.n,"aw",%nobits
 1654              		.align	2
 1655              		.set	.LANCHOR2,. + 0
 1656              		.type	n, %object
 1657              		.size	n, 4
 1658              	n:
 1659 0000 00000000 		.space	4
 1660              		.section	.bss.orArr,"aw",%nobits
 1661              		.align	2
 1662              		.set	.LANCHOR7,. + 0
 1663              		.type	orArr, %object
 1664              		.size	orArr, 32
 1665              	orArr:
 1666 0000 00000000 		.space	32
 1666      00000000 
 1666      00000000 
 1666      00000000 
 1666      00000000 
 1667              		.section	.bss.sw,"aw",%nobits
 1668              		.align	2
 1669              		.set	.LANCHOR13,. + 0
 1670              		.type	sw, %object
 1671              		.size	sw, 4
 1672              	sw:
 1673 0000 00000000 		.space	4
 1674              		.section	.data.__stack_chk_guard,"aw",%progbits
 1675              		.align	2
 1676              		.type	__stack_chk_guard, %object
 1677              		.size	__stack_chk_guard, 4
 1678              	__stack_chk_guard:
 1679 0000 96E3DEE2 		.word	-488709226
 1680              		.section	.data.bus_condvar,"aw",%progbits
 1681              		.align	2
 1682              		.set	.LANCHOR14,. + 0
 1683              		.type	bus_condvar, %object
 1684              		.size	bus_condvar, 8
 1685              	bus_condvar:
 1686 0000 00000000 		.word	bus_condvar
 1687 0004 00000000 		.word	bus_condvar
 1688              		.section	.data.bus_lock,"aw",%progbits
 1689              		.align	2
 1690              		.set	.LANCHOR15,. + 0
 1691              		.type	bus_lock, %object
 1692              		.size	bus_lock, 20
 1693              	bus_lock:
 1694 0000 00000000 		.word	bus_lock
 1695 0004 00000000 		.word	bus_lock
 1696 0008 00000000 		.word	0
 1697 000c 00000000 		.word	0
 1698 0010 00000000 		.word	0
 1699              		.section	.data.motor_speed,"aw",%progbits
 1700              		.align	2
ARM GAS  /tmp/ccNVaBhV.s 			page 31


 1701              		.set	.LANCHOR0,. + 0
 1702              		.type	motor_speed, %object
 1703              		.size	motor_speed, 4
 1704              	motor_speed:
 1705 0000 F4010000 		.word	500
 1706              		.section	.data.motor_speed_r,"aw",%progbits
 1707              		.align	2
 1708              		.set	.LANCHOR1,. + 0
 1709              		.type	motor_speed_r, %object
 1710              		.size	motor_speed_r, 4
 1711              	motor_speed_r:
 1712 0000 0CFEFFFF 		.word	-500
 1713              		.section	.rodata.__stack_chk_fail.str1.4,"aMS",%progbits,1
 1714              		.align	2
 1715              	.LC0:
 1716 0000 53746163 		.ascii	"Stack smashing detected\000"
 1716      6B20736D 
 1716      61736869 
 1716      6E672064 
 1716      65746563 
 1717              		.text
 1718              	.Letext0:
 1719              		.file 2 "/home/uos/Documents/E-pucklab/Eclipse_e-puck2/Tools/gcc-arm-none-eabi-7-2017-q4-major/arm
 1720              		.file 3 "/home/uos/Documents/E-pucklab/Eclipse_e-puck2/Tools/gcc-arm-none-eabi-7-2017-q4-major/lib
 1721              		.file 4 "/home/uos/Documents/E-pucklab/Eclipse_e-puck2/Tools/gcc-arm-none-eabi-7-2017-q4-major/arm
 1722              		.file 5 "/home/uos/Documents/E-pucklab/Eclipse_e-puck2/Tools/gcc-arm-none-eabi-7-2017-q4-major/arm
 1723              		.file 6 "/home/uos/Documents/E-pucklab/Eclipse_e-puck2/Tools/gcc-arm-none-eabi-7-2017-q4-major/arm
 1724              		.file 7 "/home/uos/Documents/E-pucklab/Eclipse_e-puck2/Tools/gcc-arm-none-eabi-7-2017-q4-major/arm
 1725              		.file 8 "/home/uos/Documents/E-pucklab/Eclipse_e-puck2/Tools/gcc-arm-none-eabi-7-2017-q4-major/arm
 1726              		.file 9 "/home/uos/Documents/E-pucklab/Eclipse_e-puck2/Tools/gcc-arm-none-eabi-7-2017-q4-major/arm
 1727              		.file 10 "/home/uos/Documents/E-pucklab/Eclipse_e-puck2/Tools/gcc-arm-none-eabi-7-2017-q4-major/ar
 1728              		.file 11 "../e-puck2_main-processor/ChibiOS//os/rt/ports/ARMCMx/compilers/GCC/chtypes.h"
 1729              		.file 12 "../e-puck2_main-processor/ChibiOS//os/rt/include/chsystypes.h"
 1730              		.file 13 "../e-puck2_main-processor/ChibiOS//os/rt/include/chschd.h"
 1731              		.file 14 "../e-puck2_main-processor/ChibiOS//os/ext/CMSIS/include/core_cm4.h"
 1732              		.file 15 "../e-puck2_main-processor/ChibiOS//os/ext/CMSIS/ST/system_stm32f4xx.h"
 1733              		.file 16 "../e-puck2_main-processor/ChibiOS//os/ext/CMSIS/ST/stm32f407xx.h"
 1734              		.file 17 "../e-puck2_main-processor/ChibiOS//os/rt/ports/ARMCMx/chcore.h"
 1735              		.file 18 "../e-puck2_main-processor/ChibiOS//os/rt/ports/ARMCMx/chcore_v7m.h"
 1736              		.file 19 "../e-puck2_main-processor/ChibiOS//os/rt/include/chdebug.h"
 1737              		.file 20 "../e-puck2_main-processor/ChibiOS//os/rt/include/chtm.h"
 1738              		.file 21 "../e-puck2_main-processor/ChibiOS//os/rt/include/chstats.h"
 1739              		.file 22 "../e-puck2_main-processor/ChibiOS//os/rt/include/chsem.h"
 1740              		.file 23 "../e-puck2_main-processor/ChibiOS//os/rt/include/chmtx.h"
 1741              		.file 24 "../e-puck2_main-processor/ChibiOS//os/rt/include/chregistry.h"
 1742              		.file 25 "../e-puck2_main-processor/ChibiOS//os/rt/include/chcond.h"
 1743              		.file 26 "../e-puck2_main-processor/ChibiOS//os/rt/include/chevents.h"
 1744              		.file 27 "../e-puck2_main-processor/ChibiOS//os/rt/include/chqueues.h"
 1745              		.file 28 "../e-puck2_main-processor/ChibiOS//os/hal/ports/STM32/STM32F4xx/stm32_dma.h"
 1746              		.file 29 "../e-puck2_main-processor/ChibiOS//os/hal/include/hal_ioblock.h"
 1747              		.file 30 "../e-puck2_main-processor/ChibiOS//os/hal/ports/STM32/LLD/GPIOv2/pal_lld.h"
 1748              		.file 31 "../e-puck2_main-processor/ChibiOS//os/hal/include/adc.h"
 1749              		.file 32 "../e-puck2_main-processor/ChibiOS//os/hal/ports/STM32/STM32F4xx/adc_lld.h"
 1750              		.file 33 "../e-puck2_main-processor/ChibiOS//os/hal/include/can.h"
 1751              		.file 34 "../e-puck2_main-processor/ChibiOS//os/hal/ports/STM32/LLD/can_lld.h"
 1752              		.file 35 "../e-puck2_main-processor/ChibiOS//os/hal/include/dac.h"
 1753              		.file 36 "../e-puck2_main-processor/ChibiOS//os/hal/ports/STM32/LLD/DACv1/dac_lld.h"
ARM GAS  /tmp/ccNVaBhV.s 			page 32


 1754              		.file 37 "../e-puck2_main-processor/ChibiOS//os/hal/include/ext.h"
 1755              		.file 38 "../e-puck2_main-processor/ChibiOS//os/hal/ports/STM32/LLD/ext_lld.h"
 1756              		.file 39 "../e-puck2_main-processor/ChibiOS//os/hal/include/gpt.h"
 1757              		.file 40 "../e-puck2_main-processor/ChibiOS//os/hal/ports/STM32/LLD/TIMv1/gpt_lld.h"
 1758              		.file 41 "../e-puck2_main-processor/ChibiOS//os/hal/ports/STM32/LLD/TIMv1/stm32_tim.h"
 1759              		.file 42 "../e-puck2_main-processor/ChibiOS//os/hal/include/i2c.h"
 1760              		.file 43 "../e-puck2_main-processor/ChibiOS//os/hal/ports/STM32/LLD/I2Cv1/i2c_lld.h"
 1761              		.file 44 "../e-puck2_main-processor/ChibiOS//os/hal/include/i2s.h"
 1762              		.file 45 "../e-puck2_main-processor/ChibiOS//os/hal/ports/STM32/LLD/SPIv1/i2s_lld.h"
 1763              		.file 46 "../e-puck2_main-processor/ChibiOS//os/hal/include/pwm.h"
 1764              		.file 47 "../e-puck2_main-processor/ChibiOS//os/hal/ports/STM32/LLD/TIMv1/pwm_lld.h"
 1765              		.file 48 "../e-puck2_main-processor/ChibiOS//os/hal/include/serial.h"
 1766              		.file 49 "../e-puck2_main-processor/ChibiOS//os/hal/ports/STM32/LLD/USARTv1/serial_lld.h"
 1767              		.file 50 "../e-puck2_main-processor/ChibiOS//os/hal/include/sdc.h"
 1768              		.file 51 "../e-puck2_main-processor/ChibiOS//os/hal/ports/STM32/LLD/sdc_lld.h"
 1769              		.file 52 "../e-puck2_main-processor/ChibiOS//os/hal/include/spi.h"
 1770              		.file 53 "../e-puck2_main-processor/ChibiOS//os/hal/ports/STM32/LLD/SPIv1/spi_lld.h"
 1771              		.file 54 "../e-puck2_main-processor/ChibiOS//os/hal/include/usb.h"
 1772              		.file 55 "../e-puck2_main-processor/ChibiOS//os/hal/ports/STM32/LLD/OTGv1/usb_lld.h"
 1773              		.file 56 "../e-puck2_main-processor/ChibiOS//os/hal/ports/STM32/LLD/OTGv1/stm32_otg.h"
 1774              		.file 57 "/home/uos/Documents/E-pucklab/Eclipse_e-puck2/Tools/gcc-arm-none-eabi-7-2017-q4-major/ar
 1775              		.file 58 "../e-puck2_main-processor/src/msgbus/messagebus.h"
 1776              		.file 59 "../e-puck2_main-processor/src/parameter/parameter.h"
 1777              		.file 60 "./main.h"
 1778              		.file 61 "../e-puck2_main-processor/src/motors.h"
 1779              		.file 62 "../e-puck2_main-processor/ChibiOS//os/rt/include/chsys.h"
 1780              		.file 63 "../e-puck2_main-processor/src/sensors/proximity.h"
 1781              		.file 64 "../e-puck2_main-processor/src/leds.h"
 1782              		.file 65 "../e-puck2_main-processor/src/sensors/VL53L0X/VL53L0X.h"
 1783              		.file 66 "../e-puck2_main-processor/src/selector.h"
 1784              		.file 67 "../e-puck2_main-processor/ChibiOS//os/hal/include/hal.h"
 1785              		.file 68 "../e-puck2_main-processor/src/memory_protection.h"
 1786              		.file 69 "../e-puck2_main-processor/src/spi_comm.h"
 1787              		.file 70 "../e-puck2_main-processor/src/serial_comm.h"